; Function Attrs: mustprogress nofree norecurse nosync nounwind willreturn memory(argmem: write) uwtable
define hidden void @_ZN2cv6detail8tracking14ClfOnlineStumpC2Ei(ptr noundef nonnull writeonly align 4 captures(none) dereferenceable(52) initializes((0, 45), (48, 52)) %0, i32 noundef %1) unnamed_addr #0 align 2 {
  %3 = getelementptr inbounds nuw i8, ptr %0, i64 4
  %4 = getelementptr inbounds nuw i8, ptr %0, i64 8
  %5 = getelementptr inbounds nuw i8, ptr %0, i64 12
  %6 = getelementptr inbounds nuw i8, ptr %0, i64 40
  %7 = getelementptr inbounds nuw i8, ptr %0, i64 44
  %8 = getelementptr inbounds nuw i8, ptr %0, i64 48
  %9 = getelementptr inbounds nuw i8, ptr %0, i64 16
  tail call void @llvm.memset.p0.i64(ptr noundef nonnull align 4 dereferenceable(24) %9, i8 0, i64 24, i1 false)
  store i32 %1, ptr %8, align 4, !tbaa !38
  store float 0.000000e+00, ptr %0, align 4, !tbaa !41
  store float 0.000000e+00, ptr %3, align 4, !tbaa !42
  store float 1.000000e+00, ptr %4, align 4, !tbaa !43
  store float 1.000000e+00, ptr %5, align 4, !tbaa !44
  store float 0x3FEB333340000000, ptr %6, align 4, !tbaa !46
  store i8 0, ptr %7, align 4, !tbaa !45
  ret void
}